target datalayout = "e-m:e-p270:32:32-p271:32:32-p272:64:64-i64:64-i128:128-f80:128-n8:16:32:64-S128"
target triple = "x86_64-pc-linux-gnu"

%struct._generic_SUNMatrix = type { ptr, ptr, ptr }
%struct._SUNMatrixContent_Band = type { i64, i64, i64, i64, i64, i64, ptr, i64, ptr }

; Function Attrs: nounwind uwtable
define internal i32 @Jac2(double noundef %0, ptr noundef %1, ptr noundef %2, ptr noundef %3, ptr noundef %4, ptr noundef %5, ptr noundef %6, ptr noundef %7) #0 {
  %9 = alloca double, align 8
  %10 = alloca ptr, align 8
  %11 = alloca ptr, align 8
  %12 = alloca ptr, align 8
  %13 = alloca ptr, align 8
  %14 = alloca ptr, align 8
  %15 = alloca ptr, align 8
  %16 = alloca ptr, align 8
  %17 = alloca i32, align 4
  %18 = alloca i32, align 4
  %19 = alloca i32, align 4
  %20 = alloca ptr, align 8
  store double %0, ptr %9, align 8, !tbaa !8
  store ptr %1, ptr %10, align 8, !tbaa !10
  store ptr %2, ptr %11, align 8, !tbaa !10
  store ptr %3, ptr %12, align 8, !tbaa !13
  store ptr %4, ptr %13, align 8, !tbaa !19
  store ptr %5, ptr %14, align 8, !tbaa !10
  store ptr %6, ptr %15, align 8, !tbaa !10
  store ptr %7, ptr %16, align 8, !tbaa !10
  call void @llvm.lifetime.start.p0(i64 4, ptr %17) #5
  call void @llvm.lifetime.start.p0(i64 4, ptr %18) #5
  call void @llvm.lifetime.start.p0(i64 4, ptr %19) #5
  call void @llvm.lifetime.start.p0(i64 8, ptr %20) #5
  store i32 0, ptr %18, align 4, !tbaa !4
  br label %21

21:                                               ; preds = %80, %8
  %22 = load i32, ptr %18, align 4, !tbaa !4
  %23 = icmp slt i32 %22, 5
  br i1 %23, label %24, label %83

24:                                               ; preds = %21
  store i32 0, ptr %17, align 4, !tbaa !4
  br label %25

25:                                               ; preds = %76, %24
  %26 = load i32, ptr %17, align 4, !tbaa !4
  %27 = icmp slt i32 %26, 5
  br i1 %27, label %28, label %79

28:                                               ; preds = %25
  %29 = load i32, ptr %17, align 4, !tbaa !4
  %30 = load i32, ptr %18, align 4, !tbaa !4
  %31 = mul nsw i32 %30, 5
  %32 = add nsw i32 %29, %31
  store i32 %32, ptr %19, align 4, !tbaa !4
  %33 = load ptr, ptr %12, align 8, !tbaa !13
  %34 = getelementptr inbounds nuw %struct._generic_SUNMatrix, ptr %33, i32 0, i32 0
  %35 = load ptr, ptr %34, align 8, !tbaa !42
  %36 = getelementptr inbounds nuw %struct._SUNMatrixContent_Band, ptr %35, i32 0, i32 8
  %37 = load ptr, ptr %36, align 8, !tbaa !49
  %38 = load i32, ptr %19, align 4, !tbaa !4
  %39 = sext i32 %38 to i64
  %40 = getelementptr inbounds ptr, ptr %37, i64 %39
  %41 = load ptr, ptr %40, align 8, !tbaa !48
  %42 = load ptr, ptr %12, align 8, !tbaa !13
  %43 = getelementptr inbounds nuw %struct._generic_SUNMatrix, ptr %42, i32 0, i32 0
  %44 = load ptr, ptr %43, align 8, !tbaa !42
  %45 = getelementptr inbounds nuw %struct._SUNMatrixContent_Band, ptr %44, i32 0, i32 5
  %46 = load i64, ptr %45, align 8, !tbaa !51
  %47 = getelementptr inbounds double, ptr %41, i64 %46
  store ptr %47, ptr %20, align 8, !tbaa !48
  %48 = load ptr, ptr %20, align 8, !tbaa !48
  %49 = load i32, ptr %19, align 4, !tbaa !4
  %50 = load i32, ptr %19, align 4, !tbaa !4
  %51 = sub nsw i32 %49, %50
  %52 = sext i32 %51 to i64
  %53 = getelementptr inbounds double, ptr %48, i64 %52
  store double -2.000000e+00, ptr %53, align 8, !tbaa !8
  %54 = load i32, ptr %17, align 4, !tbaa !4
  %55 = icmp ne i32 %54, 4
  br i1 %55, label %56, label %64

56:                                               ; preds = %28
  %57 = load ptr, ptr %20, align 8, !tbaa !48
  %58 = load i32, ptr %19, align 4, !tbaa !4
  %59 = add nsw i32 %58, 1
  %60 = load i32, ptr %19, align 4, !tbaa !4
  %61 = sub nsw i32 %59, %60
  %62 = sext i32 %61 to i64
  %63 = getelementptr inbounds double, ptr %57, i64 %62
  store double 1.000000e+00, ptr %63, align 8, !tbaa !8
  br label %64

64:                                               ; preds = %56, %28
  %65 = load i32, ptr %18, align 4, !tbaa !4
  %66 = icmp ne i32 %65, 4
  br i1 %66, label %67, label %75

67:                                               ; preds = %64
  %68 = load ptr, ptr %20, align 8, !tbaa !48
  %69 = load i32, ptr %19, align 4, !tbaa !4
  %70 = add nsw i32 %69, 5
  %71 = load i32, ptr %19, align 4, !tbaa !4
  %72 = sub nsw i32 %70, %71
  %73 = sext i32 %72 to i64
  %74 = getelementptr inbounds double, ptr %68, i64 %73
  store double 1.000000e+00, ptr %74, align 8, !tbaa !8
  br label %75

75:                                               ; preds = %67, %64
  br label %76

76:                                               ; preds = %75
  %77 = load i32, ptr %17, align 4, !tbaa !4
  %78 = add nsw i32 %77, 1
  store i32 %78, ptr %17, align 4, !tbaa !4
  br label %25

79:                                               ; preds = %25
  br label %80

80:                                               ; preds = %79
  %81 = load i32, ptr %18, align 4, !tbaa !4
  %82 = add nsw i32 %81, 1
  store i32 %82, ptr %18, align 4, !tbaa !4
  br label %21

83:                                               ; preds = %21
  call void @llvm.lifetime.end.p0(i64 8, ptr %20) #5
  call void @llvm.lifetime.end.p0(i64 4, ptr %19) #5
  call void @llvm.lifetime.end.p0(i64 4, ptr %18) #5
  call void @llvm.lifetime.end.p0(i64 4, ptr %17) #5
  ret i32 0
}